target datalayout = "e-m:e-p270:32:32-p271:32:32-p272:64:64-i64:64-i128:128-f80:128-n8:16:32:64-S128"
target triple = "x86_64-pc-linux-gnu"

%"struct.pkpy::MemoryPool" = type { %"struct.pkpy::DoubleLinkedList", %"struct.pkpy::DoubleLinkedList" }
%"struct.pkpy::DoubleLinkedList" = type { i32, %"struct.pkpy::LinkedListNode", %"struct.pkpy::LinkedListNode" }
%"struct.pkpy::LinkedListNode" = type { ptr, ptr }
%"struct.pkpy::MemoryPool<64>::Block" = type { ptr, [64 x i8] }
%"struct.pkpy::MemoryPool<64>::Arena" = type <{ %"struct.pkpy::LinkedListNode", [4096 x %"struct.pkpy::MemoryPool<64>::Block"], [4096 x ptr], i32, [4 x i8] }>

@_ZN4pkpyL6pool64E = internal global %"struct.pkpy::MemoryPool" zeroinitializer, align 8

; Function Attrs: mustprogress nounwind uwtable
define linkonce_odr void @_ZN4pkpy10MemoryPoolILi64EE5Arena7deallocEPNS1_5BlockE(ptr noundef nonnull align 8 dereferenceable(327700) %0, ptr noundef %1) #5 comdat align 2 {
  %3 = alloca ptr, align 8
  %4 = alloca ptr, align 8
  store ptr %0, ptr %3, align 8
  store ptr %1, ptr %4, align 8
  %5 = load ptr, ptr %3, align 8
  %6 = load ptr, ptr %4, align 8
  %7 = getelementptr inbounds %"struct.pkpy::MemoryPool<64>::Arena", ptr %5, i32 0, i32 2
  %8 = getelementptr inbounds %"struct.pkpy::MemoryPool<64>::Arena", ptr %5, i32 0, i32 3
  %9 = load i32, ptr %8, align 8
  %10 = sext i32 %9 to i64
  %11 = getelementptr inbounds [4096 x ptr], ptr %7, i64 0, i64 %10
  store ptr %6, ptr %11, align 8
  %12 = getelementptr inbounds %"struct.pkpy::MemoryPool<64>::Arena", ptr %5, i32 0, i32 3
  %13 = load i32, ptr %12, align 8
  %14 = add nsw i32 %13, 1
  store i32 %14, ptr %12, align 8
  ret void
}

; Function Attrs: mustprogress nounwind uwtable
define linkonce_odr void @_ZN4pkpy16DoubleLinkedListINS_10MemoryPoolILi64EE5ArenaEE10push_frontEPS3_(ptr noundef nonnull align 8 dereferenceable(40) %0, ptr noundef %1) #5 comdat align 2 {
  %3 = alloca ptr, align 8
  %4 = alloca ptr, align 8
  store ptr %0, ptr %3, align 8
  store ptr %1, ptr %4, align 8
  %5 = load ptr, ptr %3, align 8
  %6 = getelementptr inbounds %"struct.pkpy::DoubleLinkedList", ptr %5, i32 0, i32 1
  %7 = load ptr, ptr %4, align 8
  %8 = getelementptr inbounds %"struct.pkpy::LinkedListNode", ptr %7, i32 0, i32 0
  store ptr %6, ptr %8, align 8
  %9 = getelementptr inbounds %"struct.pkpy::DoubleLinkedList", ptr %5, i32 0, i32 1
  %10 = getelementptr inbounds %"struct.pkpy::LinkedListNode", ptr %9, i32 0, i32 1
  %11 = load ptr, ptr %10, align 8
  %12 = load ptr, ptr %4, align 8
  %13 = getelementptr inbounds %"struct.pkpy::LinkedListNode", ptr %12, i32 0, i32 1
  store ptr %11, ptr %13, align 8
  %14 = load ptr, ptr %4, align 8
  %15 = getelementptr inbounds %"struct.pkpy::DoubleLinkedList", ptr %5, i32 0, i32 1
  %16 = getelementptr inbounds %"struct.pkpy::LinkedListNode", ptr %15, i32 0, i32 1
  %17 = load ptr, ptr %16, align 8
  %18 = getelementptr inbounds %"struct.pkpy::LinkedListNode", ptr %17, i32 0, i32 0
  store ptr %14, ptr %18, align 8
  %19 = load ptr, ptr %4, align 8
  %20 = getelementptr inbounds %"struct.pkpy::DoubleLinkedList", ptr %5, i32 0, i32 1
  %21 = getelementptr inbounds %"struct.pkpy::LinkedListNode", ptr %20, i32 0, i32 1
  store ptr %19, ptr %21, align 8
  %22 = getelementptr inbounds %"struct.pkpy::DoubleLinkedList", ptr %5, i32 0, i32 0
  %23 = load i32, ptr %22, align 8
  %24 = add nsw i32 %23, 1
  store i32 %24, ptr %22, align 8
  ret void
}

; Function Attrs: mustprogress nounwind uwtable
define linkonce_odr void @_ZN4pkpy16DoubleLinkedListINS_10MemoryPoolILi64EE5ArenaEE5eraseEPS3_(ptr noundef nonnull align 8 dereferenceable(40) %0, ptr noundef %1) #5 comdat align 2 {
  %3 = alloca ptr, align 8
  %4 = alloca ptr, align 8
  store ptr %0, ptr %3, align 8
  store ptr %1, ptr %4, align 8
  %5 = load ptr, ptr %3, align 8
  %6 = load ptr, ptr %4, align 8
  %7 = getelementptr inbounds %"struct.pkpy::LinkedListNode", ptr %6, i32 0, i32 1
  %8 = load ptr, ptr %7, align 8
  %9 = load ptr, ptr %4, align 8
  %10 = getelementptr inbounds %"struct.pkpy::LinkedListNode", ptr %9, i32 0, i32 0
  %11 = load ptr, ptr %10, align 8
  %12 = getelementptr inbounds %"struct.pkpy::LinkedListNode", ptr %11, i32 0, i32 1
  store ptr %8, ptr %12, align 8
  %13 = load ptr, ptr %4, align 8
  %14 = getelementptr inbounds %"struct.pkpy::LinkedListNode", ptr %13, i32 0, i32 0
  %15 = load ptr, ptr %14, align 8
  %16 = load ptr, ptr %4, align 8
  %17 = getelementptr inbounds %"struct.pkpy::LinkedListNode", ptr %16, i32 0, i32 1
  %18 = load ptr, ptr %17, align 8
  %19 = getelementptr inbounds %"struct.pkpy::LinkedListNode", ptr %18, i32 0, i32 0
  store ptr %15, ptr %19, align 8
  %20 = getelementptr inbounds %"struct.pkpy::DoubleLinkedList", ptr %5, i32 0, i32 0
  %21 = load i32, ptr %20, align 8
  %22 = add nsw i32 %21, -1
  store i32 %22, ptr %20, align 8
  ret void
}

; Function Attrs: mustprogress nounwind uwtable
define linkonce_odr noundef zeroext i1 @_ZNK4pkpy10MemoryPoolILi64EE5Arena5emptyEv(ptr noundef nonnull align 8 dereferenceable(327700) %0) #5 comdat align 2 {
  %2 = alloca ptr, align 8
  store ptr %0, ptr %2, align 8
  %3 = load ptr, ptr %2, align 8
  %4 = getelementptr inbounds %"struct.pkpy::MemoryPool<64>::Arena", ptr %3, i32 0, i32 3
  %5 = load i32, ptr %4, align 8
  %6 = icmp eq i32 %5, 0
  ret i1 %6
}

; Function Attrs: noreturn nounwind uwtable
define linkonce_odr hidden void @__clang_call_terminate(ptr noundef %0) #6 comdat {
  %2 = call ptr @__cxa_begin_catch(ptr %0) #3
  call void @_ZSt9terminatev() #12
  unreachable
}

; Function Attrs: mustprogress uwtable
define linkonce_odr void @_ZN4pkpy10MemoryPoolILi64EE7deallocEPv(ptr noundef nonnull align 8 dereferenceable(80) %0, ptr noundef %1) #4 comdat align 2 {
  %3 = alloca ptr, align 8
  %4 = alloca ptr, align 8
  %5 = alloca ptr, align 8
  %6 = alloca ptr, align 8
  store ptr %0, ptr %3, align 8
  store ptr %1, ptr %4, align 8
  %7 = load ptr, ptr %3, align 8
  %8 = load ptr, ptr %4, align 8
  %9 = getelementptr inbounds i8, ptr %8, i64 -8
  store ptr %9, ptr %5, align 8
  %10 = load ptr, ptr %5, align 8
  %11 = getelementptr inbounds %"struct.pkpy::MemoryPool<64>::Block", ptr %10, i32 0, i32 0
  %12 = load ptr, ptr %11, align 8
  %13 = icmp eq ptr %12, null
  br i1 %13, label %14, label %16

14:                                               ; preds = %2
  %15 = load ptr, ptr %5, align 8
  call void @free(ptr noundef %15) #3
  br label %33

16:                                               ; preds = %2
  %17 = load ptr, ptr %5, align 8
  %18 = getelementptr inbounds %"struct.pkpy::MemoryPool<64>::Block", ptr %17, i32 0, i32 0
  %19 = load ptr, ptr %18, align 8
  store ptr %19, ptr %6, align 8
  %20 = load ptr, ptr %6, align 8
  %21 = call noundef zeroext i1 @_ZNK4pkpy10MemoryPoolILi64EE5Arena5emptyEv(ptr noundef nonnull align 8 dereferenceable(327700) %20)
  br i1 %21, label %22, label %29

22:                                               ; preds = %16
  %23 = getelementptr inbounds %"struct.pkpy::MemoryPool", ptr %7, i32 0, i32 1
  %24 = load ptr, ptr %6, align 8
  call void @_ZN4pkpy16DoubleLinkedListINS_10MemoryPoolILi64EE5ArenaEE5eraseEPS3_(ptr noundef nonnull align 8 dereferenceable(40) %23, ptr noundef %24)
  %25 = getelementptr inbounds %"struct.pkpy::MemoryPool", ptr %7, i32 0, i32 0
  %26 = load ptr, ptr %6, align 8
  call void @_ZN4pkpy16DoubleLinkedListINS_10MemoryPoolILi64EE5ArenaEE10push_frontEPS3_(ptr noundef nonnull align 8 dereferenceable(40) %25, ptr noundef %26)
  %27 = load ptr, ptr %6, align 8
  %28 = load ptr, ptr %5, align 8
  call void @_ZN4pkpy10MemoryPoolILi64EE5Arena7deallocEPNS1_5BlockE(ptr noundef nonnull align 8 dereferenceable(327700) %27, ptr noundef %28)
  br label %32

29:                                               ; preds = %16
  %30 = load ptr, ptr %6, align 8
  %31 = load ptr, ptr %5, align 8
  call void @_ZN4pkpy10MemoryPoolILi64EE5Arena7deallocEPNS1_5BlockE(ptr noundef nonnull align 8 dereferenceable(327700) %30, ptr noundef %31)
  br label %32

32:                                               ; preds = %29, %22
  br label %33

33:                                               ; preds = %32, %14
  ret void
}

; Function Attrs: mustprogress nounwind uwtable
define void @_ZN4pkpy14pool64_deallocEPv(ptr noundef %0) #5 personality ptr @__gxx_personality_v0 {
  %2 = alloca ptr, align 8
  store ptr %0, ptr %2, align 8
  %3 = load ptr, ptr %2, align 8
  invoke void @_ZN4pkpy10MemoryPoolILi64EE7deallocEPv(ptr noundef nonnull align 8 dereferenceable(80) @_ZN4pkpyL6pool64E, ptr noundef %3)
          to label %4 unwind label %5

4:                                                ; preds = %1
  ret void

5:                                                ; preds = %1
  %6 = landingpad { ptr, i32 }
          catch ptr null
  %7 = extractvalue { ptr, i32 } %6, 0
  call void @__clang_call_terminate(ptr %7) #12
  unreachable
}